; Function Attrs: nounwind uwtable
define ptr @l_Substring_bsize(ptr noundef readonly captures(none) %0) local_unnamed_addr #0 {
  %2 = getelementptr inbounds nuw i8, ptr %0, i64 16
  %3 = load ptr, ptr %2, align 8, !tbaa !10
  %4 = getelementptr inbounds nuw i8, ptr %0, i64 24
  %5 = load ptr, ptr %4, align 8, !tbaa !10
  %6 = ptrtoint ptr %5 to i64
  %7 = and i64 %6, 1
  %.not = icmp eq i64 %7, 0
  br i1 %.not, label %.critedge.i, label %8, !prof !15

8:                                                ; preds = %1
  %9 = ptrtoint ptr %3 to i64
  %10 = and i64 %9, 1
  %.not5 = icmp eq i64 %10, 0
  br i1 %.not5, label %.critedge.i, label %11, !prof !15

11:                                               ; preds = %8
  %12 = lshr i64 %6, 1
  %13 = lshr i64 %9, 1
  %14 = icmp samesign ult i64 %12, %13
  br i1 %14, label %lean_nat_sub.exit, label %15

15:                                               ; preds = %11
  %16 = sub nuw nsw i64 %12, %13
  %17 = shl nuw i64 %16, 1
  %18 = or disjoint i64 %17, 1
  %19 = inttoptr i64 %18 to ptr
  br label %lean_nat_sub.exit

.critedge.i:                                      ; preds = %8, %1
  %20 = tail call ptr @lean_nat_big_sub(ptr noundef %5, ptr noundef %3) #11
  br label %lean_nat_sub.exit

lean_nat_sub.exit:                                ; preds = %11, %15, %.critedge.i
  %.1.i = phi ptr [ %20, %.critedge.i ], [ %19, %15 ], [ inttoptr (i64 1 to ptr), %11 ]
  ret ptr %.1.i
}